target datalayout = "e-m:e-p270:32:32-p271:32:32-p272:64:64-i64:64-i128:128-f80:128-n8:16:32:64-S128"
target triple = "x86_64-pc-linux-gnu"

%struct.mi_page_queue_s = type { ptr, ptr, i64 }
%struct.mi_stats_s = type { %struct.mi_stat_count_s, %struct.mi_stat_count_s, %struct.mi_stat_count_s, %struct.mi_stat_count_s, %struct.mi_stat_count_s, %struct.mi_stat_count_s, %struct.mi_stat_count_s, %struct.mi_stat_count_s, %struct.mi_stat_count_s, %struct.mi_stat_count_s, %struct.mi_stat_count_s, %struct.mi_stat_count_s, %struct.mi_stat_count_s, %struct.mi_stat_count_s, %struct.mi_stat_count_s, %struct.mi_stat_counter_s, %struct.mi_stat_counter_s, %struct.mi_stat_counter_s, %struct.mi_stat_counter_s, %struct.mi_stat_counter_s, %struct.mi_stat_counter_s, %struct.mi_stat_counter_s, %struct.mi_stat_counter_s, %struct.mi_stat_counter_s, %struct.mi_stat_counter_s, %struct.mi_stat_counter_s, %struct.mi_stat_counter_s, %struct.mi_stat_counter_s }
%struct.mi_stat_count_s = type { i64, i64, i64, i64 }
%struct.mi_stat_counter_s = type { i64, i64 }
%struct.mi_subproc_s = type { i64, i64, %union.pthread_mutex_t, %union.pthread_mutex_t, ptr, ptr, %struct.mi_memid_s }
%union.pthread_mutex_t = type { %struct.__pthread_mutex_s }
%struct.__pthread_mutex_s = type { i32, i32, i32, i32, i32, i16, i16, %struct.__pthread_internal_list }
%struct.__pthread_internal_list = type { ptr, ptr }
%struct.mi_memid_s = type { %union.anon, i8, i8, i8, i32 }
%union.anon = type { %struct.mi_memid_os_info }
%struct.mi_memid_os_info = type { ptr, i64 }
%struct.mi_segments_tld_s = type { %struct.mi_segment_queue_s, %struct.mi_segment_queue_s, %struct.mi_page_queue_s, i64, i64, i64, i64, i64, ptr, ptr }
%struct.mi_segment_queue_s = type { ptr, ptr }
%struct.mi_heap_s = type { ptr, ptr, i64, i32, i64, [2 x i64], %struct.mi_random_cxt_s, i64, i64, i64, ptr, i8, i8, [129 x ptr], [75 x %struct.mi_page_queue_s] }
%struct.mi_random_cxt_s = type { [16 x i32], [16 x i32], i32, i8 }
%struct.mi_tld_s = type { i64, i8, ptr, ptr, %struct.mi_segments_tld_s, %struct.mi_stats_s }

@mi_subproc_default = internal global %struct.mi_subproc_s zeroinitializer, align 64

; Function Attrs: nounwind uwtable
define hidden ptr @_mi_subproc_from_id(ptr noundef %0) #0 {
  %2 = alloca ptr, align 8
  store ptr %0, ptr %2, align 8, !tbaa !27
  %3 = load ptr, ptr %2, align 8, !tbaa !27
  %4 = icmp eq ptr %3, null
  br i1 %4, label %5, label %6

5:                                                ; preds = %1
  br label %8

6:                                                ; preds = %1
  %7 = load ptr, ptr %2, align 8, !tbaa !27
  br label %8

8:                                                ; preds = %6, %5
  %9 = phi ptr [ @mi_subproc_default, %5 ], [ %7, %6 ]
  ret ptr %9
}

; Function Attrs: nounwind uwtable
define hidden void @mi_subproc_add_current_thread(ptr noundef %0) #0 {
  %2 = alloca ptr, align 8
  %3 = alloca ptr, align 8
  %4 = alloca i32, align 4
  store ptr %0, ptr %2, align 8, !tbaa !27
  call void @llvm.lifetime.start.p0(i64 8, ptr %3) #12
  %5 = call ptr @mi_heap_get_default() #11
  store ptr %5, ptr %3, align 8, !tbaa !3
  %6 = load ptr, ptr %3, align 8, !tbaa !3
  %7 = icmp eq ptr %6, null
  br i1 %7, label %8, label %9

8:                                                ; preds = %1
  store i32 1, ptr %4, align 4
  br label %26

9:                                                ; preds = %1
  %10 = load ptr, ptr %3, align 8, !tbaa !3
  %11 = getelementptr inbounds nuw %struct.mi_heap_s, ptr %10, i32 0, i32 0
  %12 = load ptr, ptr %11, align 8, !tbaa !32
  %13 = getelementptr inbounds nuw %struct.mi_tld_s, ptr %12, i32 0, i32 4
  %14 = getelementptr inbounds nuw %struct.mi_segments_tld_s, ptr %13, i32 0, i32 8
  %15 = load ptr, ptr %14, align 8, !tbaa !33
  %16 = icmp ne ptr %15, @mi_subproc_default
  br i1 %16, label %17, label %18

17:                                               ; preds = %9
  store i32 1, ptr %4, align 4
  br label %26

18:                                               ; preds = %9
  %19 = load ptr, ptr %2, align 8, !tbaa !27
  %20 = call ptr @_mi_subproc_from_id(ptr noundef %19) #11
  %21 = load ptr, ptr %3, align 8, !tbaa !3
  %22 = getelementptr inbounds nuw %struct.mi_heap_s, ptr %21, i32 0, i32 0
  %23 = load ptr, ptr %22, align 8, !tbaa !32
  %24 = getelementptr inbounds nuw %struct.mi_tld_s, ptr %23, i32 0, i32 4
  %25 = getelementptr inbounds nuw %struct.mi_segments_tld_s, ptr %24, i32 0, i32 8
  store ptr %20, ptr %25, align 8, !tbaa !33
  store i32 0, ptr %4, align 4
  br label %26

26:                                               ; preds = %18, %17, %8
  call void @llvm.lifetime.end.p0(i64 8, ptr %3) #12
  %27 = load i32, ptr %4, align 4
  switch i32 %27, label %29 [
    i32 0, label %28
    i32 1, label %28
  ]

28:                                               ; preds = %26, %26
  ret void

29:                                               ; preds = %26
  unreachable
}