; Function Attrs: nounwind uwtable
define hidden void @mi_subproc_add_current_thread(ptr noundef %0) local_unnamed_addr #1 {
  %2 = tail call ptr @mi_heap_get_default() #14
  %3 = icmp eq ptr %2, null
  br i1 %3, label %11, label %4

4:                                                ; preds = %1
  %5 = load ptr, ptr %2, align 8, !tbaa !29
  %6 = getelementptr inbounds nuw i8, ptr %5, i64 128
  %7 = load ptr, ptr %6, align 8, !tbaa !30
  %.not = icmp eq ptr %7, @mi_subproc_default
  br i1 %.not, label %8, label %11

8:                                                ; preds = %4
  %9 = icmp eq ptr %0, null
  %10 = select i1 %9, ptr @mi_subproc_default, ptr %0
  store ptr %10, ptr %6, align 8, !tbaa !30
  br label %11

11:                                               ; preds = %4, %1, %8
  ret void
}